target datalayout = "e-m:e-p270:32:32-p271:32:32-p272:64:64-i64:64-i128:128-f80:128-n8:16:32:64-S128"
target triple = "x86_64-pc-linux-gnu"

%struct.UHashtable = type { ptr, ptr, ptr, ptr, ptr, ptr, i32, i32, i32, i32, float, float, i8, i8 }
%struct.UHashElement = type { i32, %union.UElement, %union.UElement }
%union.UElement = type { ptr }

; Function Attrs: mustprogress uwtable
define internal ptr @_ZL17_uhash_setElementP10UHashtableP12UHashElementi8UElementS3_a(ptr noundef %0, ptr noundef %1, i32 noundef %2, ptr %3, ptr %4, i8 noundef signext %5) #0 {
  %7 = alloca %union.UElement, align 8
  %8 = alloca %union.UElement, align 8
  %9 = alloca %union.UElement, align 8
  %10 = alloca ptr, align 8
  %11 = alloca ptr, align 8
  %12 = alloca i32, align 4
  %13 = alloca i8, align 1
  %14 = getelementptr inbounds nuw %union.UElement, ptr %8, i32 0, i32 0
  store ptr %3, ptr %14, align 8
  %15 = getelementptr inbounds nuw %union.UElement, ptr %9, i32 0, i32 0
  store ptr %4, ptr %15, align 8
  store ptr %0, ptr %10, align 8, !tbaa !11
  store ptr %1, ptr %11, align 8, !tbaa !26
  store i32 %2, ptr %12, align 4, !tbaa !7
  store i8 %5, ptr %13, align 1, !tbaa !27
  %16 = load ptr, ptr %11, align 8, !tbaa !26
  %17 = getelementptr inbounds nuw %struct.UHashElement, ptr %16, i32 0, i32 1
  call void @llvm.memcpy.p0.p0.i64(ptr align 8 %7, ptr align 8 %17, i64 8, i1 false), !tbaa.struct !44
  %18 = load ptr, ptr %10, align 8, !tbaa !11
  %19 = getelementptr inbounds nuw %struct.UHashtable, ptr %18, i32 0, i32 4
  %20 = load ptr, ptr %19, align 8, !tbaa !22
  %21 = icmp ne ptr %20, null
  br i1 %21, label %22, label %40

22:                                               ; preds = %6
  %23 = load ptr, ptr %11, align 8, !tbaa !26
  %24 = getelementptr inbounds nuw %struct.UHashElement, ptr %23, i32 0, i32 2
  %25 = load ptr, ptr %24, align 8, !tbaa !27
  %26 = icmp ne ptr %25, null
  br i1 %26, label %27, label %40

27:                                               ; preds = %22
  %28 = load ptr, ptr %11, align 8, !tbaa !26
  %29 = getelementptr inbounds nuw %struct.UHashElement, ptr %28, i32 0, i32 2
  %30 = load ptr, ptr %29, align 8, !tbaa !27
  %31 = load ptr, ptr %8, align 8, !tbaa !27
  %32 = icmp ne ptr %30, %31
  br i1 %32, label %33, label %40

33:                                               ; preds = %27
  %34 = load ptr, ptr %10, align 8, !tbaa !11
  %35 = getelementptr inbounds nuw %struct.UHashtable, ptr %34, i32 0, i32 4
  %36 = load ptr, ptr %35, align 8, !tbaa !22
  %37 = load ptr, ptr %11, align 8, !tbaa !26
  %38 = getelementptr inbounds nuw %struct.UHashElement, ptr %37, i32 0, i32 2
  %39 = load ptr, ptr %38, align 8, !tbaa !27
  call void %36(ptr noundef %39)
  br label %40

40:                                               ; preds = %33, %27, %22, %6
  %41 = load ptr, ptr %10, align 8, !tbaa !11
  %42 = getelementptr inbounds nuw %struct.UHashtable, ptr %41, i32 0, i32 5
  %43 = load ptr, ptr %42, align 8, !tbaa !23
  %44 = icmp ne ptr %43, null
  br i1 %44, label %45, label %58

45:                                               ; preds = %40
  %46 = load ptr, ptr %7, align 8, !tbaa !27
  %47 = icmp ne ptr %46, null
  br i1 %47, label %48, label %57

48:                                               ; preds = %45
  %49 = load ptr, ptr %7, align 8, !tbaa !27
  %50 = load ptr, ptr %9, align 8, !tbaa !27
  %51 = icmp ne ptr %49, %50
  br i1 %51, label %52, label %57

52:                                               ; preds = %48
  %53 = load ptr, ptr %10, align 8, !tbaa !11
  %54 = getelementptr inbounds nuw %struct.UHashtable, ptr %53, i32 0, i32 5
  %55 = load ptr, ptr %54, align 8, !tbaa !23
  %56 = load ptr, ptr %7, align 8, !tbaa !27
  call void %55(ptr noundef %56)
  br label %57

57:                                               ; preds = %52, %48, %45
  store ptr null, ptr %7, align 8, !tbaa !27
  br label %58

58:                                               ; preds = %57, %40
  %59 = load i8, ptr %13, align 1, !tbaa !27
  %60 = sext i8 %59 to i32
  %61 = and i32 %60, 1
  %62 = icmp ne i32 %61, 0
  br i1 %62, label %63, label %67

63:                                               ; preds = %58
  %64 = load ptr, ptr %8, align 8, !tbaa !27
  %65 = load ptr, ptr %11, align 8, !tbaa !26
  %66 = getelementptr inbounds nuw %struct.UHashElement, ptr %65, i32 0, i32 2
  store ptr %64, ptr %66, align 8, !tbaa !27
  br label %70

67:                                               ; preds = %58
  %68 = load ptr, ptr %11, align 8, !tbaa !26
  %69 = getelementptr inbounds nuw %struct.UHashElement, ptr %68, i32 0, i32 2
  call void @llvm.memcpy.p0.p0.i64(ptr align 8 %69, ptr align 8 %8, i64 8, i1 false), !tbaa.struct !44
  br label %70

70:                                               ; preds = %67, %63
  %71 = load i8, ptr %13, align 1, !tbaa !27
  %72 = sext i8 %71 to i32
  %73 = and i32 %72, 2
  %74 = icmp ne i32 %73, 0
  br i1 %74, label %75, label %79

75:                                               ; preds = %70
  %76 = load ptr, ptr %9, align 8, !tbaa !27
  %77 = load ptr, ptr %11, align 8, !tbaa !26
  %78 = getelementptr inbounds nuw %struct.UHashElement, ptr %77, i32 0, i32 1
  store ptr %76, ptr %78, align 8, !tbaa !27
  br label %82

79:                                               ; preds = %70
  %80 = load ptr, ptr %11, align 8, !tbaa !26
  %81 = getelementptr inbounds nuw %struct.UHashElement, ptr %80, i32 0, i32 1
  call void @llvm.memcpy.p0.p0.i64(ptr align 8 %81, ptr align 8 %9, i64 8, i1 false), !tbaa.struct !44
  br label %82

82:                                               ; preds = %79, %75
  %83 = load i32, ptr %12, align 4, !tbaa !7
  %84 = load ptr, ptr %11, align 8, !tbaa !26
  %85 = getelementptr inbounds nuw %struct.UHashElement, ptr %84, i32 0, i32 0
  store i32 %83, ptr %85, align 8, !tbaa !32
  %86 = getelementptr inbounds nuw %union.UElement, ptr %7, i32 0, i32 0
  %87 = load ptr, ptr %86, align 8
  ret ptr %87
}

; Function Attrs: mustprogress uwtable
define internal ptr @_ZL28_uhash_internalRemoveElementP10UHashtableP12UHashElement(ptr noundef %0, ptr noundef %1) #0 {
  %3 = alloca %union.UElement, align 8
  %4 = alloca ptr, align 8
  %5 = alloca ptr, align 8
  %6 = alloca %union.UElement, align 8
  %7 = alloca %union.UElement, align 8
  %8 = alloca %union.UElement, align 8
  store ptr %0, ptr %4, align 8, !tbaa !11
  store ptr %1, ptr %5, align 8, !tbaa !26
  call void @llvm.lifetime.start.p0(i64 8, ptr %6) #9
  %9 = load ptr, ptr %4, align 8, !tbaa !11
  %10 = getelementptr inbounds nuw %struct.UHashtable, ptr %9, i32 0, i32 6
  %11 = load i32, ptr %10, align 8, !tbaa !43
  %12 = add nsw i32 %11, -1
  store i32 %12, ptr %10, align 8, !tbaa !43
  store ptr null, ptr %6, align 8, !tbaa !27
  store i32 0, ptr %6, align 8, !tbaa !27
  %13 = load ptr, ptr %4, align 8, !tbaa !11
  %14 = load ptr, ptr %5, align 8, !tbaa !26
  call void @llvm.memcpy.p0.p0.i64(ptr align 8 %7, ptr align 8 %6, i64 8, i1 false), !tbaa.struct !44
  call void @llvm.memcpy.p0.p0.i64(ptr align 8 %8, ptr align 8 %6, i64 8, i1 false), !tbaa.struct !44
  %15 = getelementptr inbounds nuw %union.UElement, ptr %7, i32 0, i32 0
  %16 = load ptr, ptr %15, align 8
  %17 = getelementptr inbounds nuw %union.UElement, ptr %8, i32 0, i32 0
  %18 = load ptr, ptr %17, align 8
  %19 = call ptr @_ZL17_uhash_setElementP10UHashtableP12UHashElementi8UElementS3_a(ptr noundef %13, ptr noundef %14, i32 noundef -2147483648, ptr %16, ptr %18, i8 noundef signext 0)
  %20 = getelementptr inbounds nuw %union.UElement, ptr %3, i32 0, i32 0
  store ptr %19, ptr %20, align 8
  call void @llvm.lifetime.end.p0(i64 8, ptr %6) #9
  %21 = getelementptr inbounds nuw %union.UElement, ptr %3, i32 0, i32 0
  %22 = load ptr, ptr %21, align 8
  ret ptr %22
}

; Function Attrs: mustprogress uwtable
define ptr @uhash_removeElement_77(ptr noundef %0, ptr noundef %1) #0 {
  %3 = alloca ptr, align 8
  %4 = alloca ptr, align 8
  %5 = alloca ptr, align 8
  %6 = alloca ptr, align 8
  %7 = alloca %union.UElement, align 8
  store ptr %0, ptr %4, align 8, !tbaa !11
  store ptr %1, ptr %5, align 8, !tbaa !26
  %8 = load ptr, ptr %5, align 8, !tbaa !26
  %9 = getelementptr inbounds nuw %struct.UHashElement, ptr %8, i32 0, i32 0
  %10 = load i32, ptr %9, align 8, !tbaa !32
  %11 = icmp slt i32 %10, 0
  br i1 %11, label %19, label %12

12:                                               ; preds = %2
  call void @llvm.lifetime.start.p0(i64 8, ptr %6) #9
  %13 = load ptr, ptr %5, align 8, !tbaa !26
  store ptr %13, ptr %6, align 8, !tbaa !26
  call void @llvm.lifetime.start.p0(i64 8, ptr %7) #9
  %14 = load ptr, ptr %4, align 8, !tbaa !11
  %15 = load ptr, ptr %6, align 8, !tbaa !26
  %16 = call ptr @_ZL28_uhash_internalRemoveElementP10UHashtableP12UHashElement(ptr noundef %14, ptr noundef %15)
  %17 = getelementptr inbounds nuw %union.UElement, ptr %7, i32 0, i32 0
  store ptr %16, ptr %17, align 8
  %18 = load ptr, ptr %7, align 8, !tbaa !27
  store ptr %18, ptr %3, align 8
  call void @llvm.lifetime.end.p0(i64 8, ptr %7) #9
  call void @llvm.lifetime.end.p0(i64 8, ptr %6) #9
  br label %20

19:                                               ; preds = %2
  store ptr null, ptr %3, align 8
  br label %20

20:                                               ; preds = %19, %12
  %21 = load ptr, ptr %3, align 8
  ret ptr %21
}