; Function Attrs: mustprogress uwtable
define ptr @uhash_removeElement_77(ptr noundef captures(none) %0, ptr noundef captures(none) %1) local_unnamed_addr #0 {
  %3 = load i32, ptr %1, align 8, !tbaa !22
  %4 = icmp slt i32 %3, 0
  br i1 %4, label %21, label %5

5:                                                ; preds = %2
  %6 = getelementptr inbounds nuw i8, ptr %0, i64 48
  %7 = load i32, ptr %6, align 8, !tbaa !26
  %8 = add nsw i32 %7, -1
  store i32 %8, ptr %6, align 8, !tbaa !26
  %9 = getelementptr inbounds nuw i8, ptr %1, i64 8
  %.sroa.018.0.copyload.i.i = load ptr, ptr %9, align 8, !tbaa !34
  %10 = getelementptr inbounds nuw i8, ptr %0, i64 32
  %11 = load ptr, ptr %10, align 8, !tbaa !31
  %.not.i.i = icmp eq ptr %11, null
  br i1 %.not.i.i, label %16, label %12

12:                                               ; preds = %5
  %13 = getelementptr inbounds nuw i8, ptr %1, i64 16
  %14 = load ptr, ptr %13, align 8, !tbaa !34
  %.not25.i.i = icmp eq ptr %14, null
  br i1 %.not25.i.i, label %16, label %15

15:                                               ; preds = %12
  tail call void %11(ptr noundef nonnull %14)
  br label %16

16:                                               ; preds = %15, %12, %5
  %17 = getelementptr inbounds nuw i8, ptr %0, i64 40
  %18 = load ptr, ptr %17, align 8, !tbaa !32
  %.not26.i.i = icmp eq ptr %18, null
  br i1 %.not26.i.i, label %_ZL28_uhash_internalRemoveElementP10UHashtableP12UHashElement.exit, label %19

19:                                               ; preds = %16
  %.not28.i.i = icmp eq ptr %.sroa.018.0.copyload.i.i, null
  br i1 %.not28.i.i, label %_ZL28_uhash_internalRemoveElementP10UHashtableP12UHashElement.exit, label %20

20:                                               ; preds = %19
  tail call void %18(ptr noundef nonnull %.sroa.018.0.copyload.i.i)
  br label %_ZL28_uhash_internalRemoveElementP10UHashtableP12UHashElement.exit

_ZL28_uhash_internalRemoveElementP10UHashtableP12UHashElement.exit: ; preds = %16, %19, %20
  %.sroa.018.0.i.i = phi ptr [ %.sroa.018.0.copyload.i.i, %16 ], [ null, %20 ], [ null, %19 ]
  tail call void @llvm.memset.p0.i64(ptr noundef nonnull align 8 dereferenceable(16) %9, i8 0, i64 16, i1 false)
  store i32 -2147483648, ptr %1, align 8, !tbaa !22
  br label %21

21:                                               ; preds = %2, %_ZL28_uhash_internalRemoveElementP10UHashtableP12UHashElement.exit
  %.0 = phi ptr [ %.sroa.018.0.i.i, %_ZL28_uhash_internalRemoveElementP10UHashtableP12UHashElement.exit ], [ null, %2 ]
  ret ptr %.0
}